; Function Attrs: mustprogress uwtable
define void @_ZN3nix14printGCWarningEv() local_unnamed_addr #5 personality ptr @__gxx_personality_v0 {
  %1 = alloca %"class.std::__cxx11::basic_string", align 8
  %2 = alloca %"class.std::allocator", align 1
  %3 = load i8, ptr @_ZN3nixL9gcWarningE, align 1
  %4 = and i8 %3, 1
  %.not = icmp eq i8 %4, 0
  br i1 %.not, label %20, label %5

5:                                                ; preds = %0
  %.b2 = load i1, ptr @_ZZN3nix14printGCWarningEvE10haveWarned, align 1
  br i1 %.b2, label %20, label %6

6:                                                ; preds = %5
  store i1 true, ptr @_ZZN3nix14printGCWarningEvE10haveWarned, align 1
  call void @_ZNSaIcEC1Ev(ptr noundef nonnull align 1 dereferenceable(1) %2) #30
  invoke void @_ZNSt7__cxx1112basic_stringIcSt11char_traitsIcESaIcEEC2IS3_EEPKcRKS3_(ptr noundef nonnull align 8 dereferenceable(32) %1, ptr noundef nonnull @.str.5, ptr noundef nonnull align 1 dereferenceable(1) %2)
          to label %7 unwind label %15

7:                                                ; preds = %6
  invoke void @_ZN3nix4warnIJEEEvRKNSt7__cxx1112basic_stringIcSt11char_traitsIcESaIcEEEDpRKT_(ptr noundef nonnull align 8 dereferenceable(32) %1)
          to label %8 unwind label %17

8:                                                ; preds = %7
  %9 = load ptr, ptr %1, align 8
  %10 = getelementptr inbounds i8, ptr %1, i64 16
  %11 = icmp eq ptr %9, %10
  br i1 %11, label %_ZNKSt7__cxx1112basic_stringIcSt11char_traitsIcESaIcEE11_M_is_localEv.exit.thread.i.i, label %_ZNKSt7__cxx1112basic_stringIcSt11char_traitsIcESaIcEE11_M_is_localEv.exit.i.i

_ZNKSt7__cxx1112basic_stringIcSt11char_traitsIcESaIcEE11_M_is_localEv.exit.thread.i.i: ; preds = %8
  %12 = getelementptr inbounds i8, ptr %1, i64 8
  %13 = load i64, ptr %12, align 8
  %14 = icmp ult i64 %13, 16
  call void @llvm.assume(i1 %14)
  br label %_ZNSt7__cxx1112basic_stringIcSt11char_traitsIcESaIcEED2Ev.exit

_ZNKSt7__cxx1112basic_stringIcSt11char_traitsIcESaIcEE11_M_is_localEv.exit.i.i: ; preds = %8
  call void @_ZdlPv(ptr noundef %9) #33
  br label %_ZNSt7__cxx1112basic_stringIcSt11char_traitsIcESaIcEED2Ev.exit

_ZNSt7__cxx1112basic_stringIcSt11char_traitsIcESaIcEED2Ev.exit: ; preds = %_ZNKSt7__cxx1112basic_stringIcSt11char_traitsIcESaIcEE11_M_is_localEv.exit.thread.i.i, %_ZNKSt7__cxx1112basic_stringIcSt11char_traitsIcESaIcEE11_M_is_localEv.exit.i.i
  call void @_ZNSaIcED2Ev(ptr noundef nonnull align 1 dereferenceable(1) %1) #30
  call void @_ZNSaIcED1Ev(ptr noundef nonnull align 1 dereferenceable(1) %2) #30
  br label %20

15:                                               ; preds = %6
  %16 = landingpad { ptr, i32 }
          cleanup
  br label %19

17:                                               ; preds = %7
  %18 = landingpad { ptr, i32 }
          cleanup
  call void @_ZNSt7__cxx1112basic_stringIcSt11char_traitsIcESaIcEED2Ev(ptr noundef nonnull align 8 dereferenceable(32) %1) #30
  br label %19

19:                                               ; preds = %17, %15
  %.pn = phi { ptr, i32 } [ %18, %17 ], [ %16, %15 ]
  call void @_ZNSaIcED1Ev(ptr noundef nonnull align 1 dereferenceable(1) %2) #30
  resume { ptr, i32 } %.pn

20:                                               ; preds = %0, %_ZNSt7__cxx1112basic_stringIcSt11char_traitsIcESaIcEED2Ev.exit, %5
  ret void
}